Certificate:
    Data:
        Version: 1 (0x0)
        Serial Number: 1 (0x1)
        Signature Algorithm: sha256WithRSAEncryption
        Issuer: C=PL, ST=Mazowieckie, L=Warszawa, O=Org-CAPL, CN=CAPL/emailAddress=capl@capl.org.pl
        Validity
            Not Before: Jan 27 14:21:10 2024 GMT
            Not After : Jan 26 14:21:10 2025 GMT
        Subject: C=PL, ST=Mazowieckie, L=Warszawa, O=Ala-ma-dlugi, CN=Ala/emailAddress=ala.dlug@ala.pl
        Subject Public Key Info:
            Public Key Algorithm: rsaEncryption
                RSA Public-Key: (2048 bit)
                Modulus:
                    00:ad:39:8e:d6:74:a9:34:cf:90:1f:8a:07:f9:65:
                    d2:14:33:62:90:80:48:a6:82:68:29:22:26:38:1f:
                    25:c0:41:3b:63:97:aa:99:7c:a1:4c:b5:9b:2f:53:
                    43:fe:ce:fe:48:3d:c1:61:15:8b:51:43:dc:dc:78:
                    b1:01:fa:22:b3:ab:06:71:54:cc:57:3c:47:af:3f:
                    9f:f1:7d:19:7e:c3:10:8f:75:bb:95:6d:f3:a0:7d:
                    c0:13:ce:20:f4:21:34:d1:e9:21:9a:0b:e4:5a:bf:
                    e1:7d:ef:92:06:4d:c1:3a:96:8e:72:1b:9c:93:10:
                    d5:bd:79:9b:73:61:dd:cb:bb:40:a2:58:5f:2a:a4:
                    8f:41:c4:26:19:9f:be:45:db:92:68:ef:81:79:af:
                    41:28:b2:d7:fb:b2:9f:17:45:eb:b8:73:4b:e9:78:
                    eb:05:6b:8b:d3:dd:e6:12:87:76:d6:43:65:17:e0:
                    da:c5:65:0d:5e:90:b5:f3:9c:fa:ce:49:c2:4b:94:
                    e5:a2:04:ff:85:bf:de:db:47:2a:c9:03:2b:52:0f:
                    2a:84:01:78:93:c8:2c:7d:93:1f:56:73:55:6a:77:
                    b7:f3:60:56:a8:99:02:df:5c:d2:4c:f6:59:81:a9:
                    40:9e:97:75:a5:1d:f9:53:f6:a4:2f:15:cd:50:ce:
                    3e:81
                Exponent: 65537 (0x10001)
    Signature Algorithm: sha256WithRSAEncryption
         2e:b5:49:86:0a:5d:c2:d0:b7:a9:66:9b:40:e8:63:7d:e7:4d:
         8e:83:5b:47:6a:12:70:43:aa:23:4e:bc:7d:a0:30:ee:46:4f:
         5f:80:2f:93:ed:34:8c:87:b1:29:5c:cc:89:1d:0a:3c:e2:c5:
         3a:f7:5f:82:43:aa:d4:1a:ba:88:94:22:94:4a:f1:83:b8:a1:
         43:d3:2a:35:50:c6:03:78:f8:8e:1d:31:39:ab:bf:d7:3e:77:
         30:d1:8e:b1:d3:36:cf:16:d5:38:f7:36:a0:21:69:2d:c3:e9:
         70:df:ee:44:77:28:47:f1:5b:b8:aa:2e:99:b9:7a:12:3b:7b:
         0a:b4:84:44:28:37:bc:64:62:1c:38:bd:4d:0e:ec:e2:1e:c0:
         23:12:e7:f9:45:62:11:24:a3:41:0b:d4:f1:6f:88:8c:3f:90:
         23:cd:bc:ff:96:58:48:79:cf:af:c4:42:d9:ca:0f:5e:c4:7b:
         2f:ca:a3:b4:cf:22:4e:b4:e1:78:2d:22:03:95:c8:e4:3d:a3:
         6d:9d:62:9a:0d:1c:d1:01:23:5f:df:58:22:81:cd:55:7f:3c:
         a6:80:a5:4a:ff:13:a5:02:b0:25:5c:5c:a8:3d:de:e0:24:4f:
         b5:16:ff:8e:e0:f6:7a:ff:c6:d1:6b:51:80:4c:68:78:fb:a1:
         3a:c2:af:25
-----BEGIN CERTIFICATE-----
MIIDaDCCAlACAQEwDQYJKoZIhvcNAQELBQAweTELMAkGA1UEBhMCUEwxFDASBgNV
BAgMC01hem93aWVja2llMREwDwYDVQQHDAhXYXJzemF3YTERMA8GA1UECgwIT3Jn
LUNBUEwxDTALBgNVBAMMBENBUEwxHzAdBgkqhkiG9w0BCQEWEGNhcGxAY2FwbC5v
cmcucGwwHhcNMjQwMTI3MTQyMTEwWhcNMjUwMTI2MTQyMTEwWjB7MQswCQYDVQQG
EwJQTDEUMBIGA1UECAwLTWF6b3dpZWNraWUxETAPBgNVBAcMCFdhcnN6YXdhMRUw
EwYDVQQKDAxBbGEtbWEtZGx1Z2kxDDAKBgNVBAMMA0FsYTEeMBwGCSqGSIb3DQEJ
ARYPYWxhLmRsdWdAYWxhLnBsMIIBIjANBgkqhkiG9w0BAQEFAAOCAQ8AMIIBCgKC
AQEArTmO1nSpNM+QH4oH+WXSFDNikIBIpoJoKSImOB8lwEE7Y5eqmXyhTLWbL1ND
/s7+SD3BYRWLUUPc3HixAfois6sGcVTMVzxHrz+f8X0ZfsMQj3W7lW3zoH3AE84g
9CE00ekhmgvkWr/hfe+SBk3BOpaOchuckxDVvXmbc2Hdy7tAolhfKqSPQcQmGZ++
RduSaO+Bea9BKLLX+7KfF0XruHNL6XjrBWuL093mEod21kNlF+DaxWUNXpC185z6
zknCS5TlogT/hb/e20cqyQMrUg8qhAF4k8gsfZMfVnNVane382BWqJkC31zSTPZZ
galAnpd1pR35U/akLxXNUM4+gQIDAQABMA0GCSqGSIb3DQEBCwUAA4IBAQAutUmG
Cl3C0LepZptA6GN9502Og1tHahJwQ6ojTrx9oDDuRk9fgC+T7TSMh7EpXMyJHQo8
4sU691+CQ6rUGrqIlCKUSvGDuKFD0yo1UMYDePiOHTE5q7/XPncw0Y6x0zbPFtU4
9zagIWktw+lw3+5EdyhH8Vu4qi6ZuXoSO3sKtIREKDe8ZGIcOL1NDuziHsAjEuf5
RWIRJKNBC9Txb4iMP5Ajzbz/llhIec+vxELZyg9exHsvyqO0zyJOtOF4LSIDlcjk
PaNtnWKaDRzRASNf31gigc1VfzymgKVK/xOlArAlXFyoPd7gJE+1Fv+O4PZ6/8bR
a1GATGh4+6E6wq8l
-----END CERTIFICATE-----
